; Function Attrs: mustprogress nounwind uwtable
define dso_local noundef ptr @_ZNK5clang10LambdaExpr14getLambdaClassEv(ptr noundef nonnull readonly align 8 captures(none) dereferenceable(32) %0) local_unnamed_addr #4 align 2 {
  %2 = getelementptr inbounds nuw i8, ptr %0, i64 8
  %.sroa.0.0.copyload.i = load i64, ptr %2, align 8
  %3 = and i64 %.sroa.0.0.copyload.i, -16
  %4 = inttoptr i64 %3 to ptr
  %5 = load ptr, ptr %4, align 16
  %6 = tail call noundef ptr @_ZNK5clang4Type18getAsCXXRecordDeclEv(ptr noundef nonnull align 16 dereferenceable(24) %5) #16
  ret ptr %6
}